; ModuleID = '29/141.c'
source_filename = "29/141.c"
target datalayout = "e-m:e-p270:32:32-p271:32:32-p272:64:64-i64:64-f80:128-n8:16:32:64-S128"
target triple = "x86_64-pc-linux-gnu"

@.str = private unnamed_addr constant [3 x i8] c"%d\00", align 1
@.str.1 = private unnamed_addr constant [6 x i8] c"%.3f\0A\00", align 1

; Function Attrs: noinline nounwind uwtable
define dso_local i32 @main() #0 {
  %1 = alloca i32, align 4
  %2 = alloca i32, align 4
  %3 = alloca i32, align 4
  %4 = alloca i32, align 4
  %5 = alloca [500 x double], align 16
  %6 = alloca [500 x double], align 16
  %7 = alloca [500 x i32], align 16
  %8 = alloca [500 x float], align 16
  store i32 0, i32* %1, align 4
  %9 = call i32 (i8*, ...) @__isoc99_scanf(i8* getelementptr inbounds ([3 x i8], [3 x i8]* @.str, i64 0, i64 0), i32* %2)
  store i32 0, i32* %3, align 4
  br label %10

10:                                               ; preds = %19, %0
  %11 = load i32, i32* %3, align 4
  %12 = load i32, i32* %2, align 4
  %13 = icmp slt i32 %11, %12
  br i1 %13, label %14, label %22

14:                                               ; preds = %10
  %15 = load i32, i32* %3, align 4
  %16 = sext i32 %15 to i64
  %17 = getelementptr inbounds [500 x i32], [500 x i32]* %7, i64 0, i64 %16
  %18 = call i32 (i8*, ...) @__isoc99_scanf(i8* getelementptr inbounds ([3 x i8], [3 x i8]* @.str, i64 0, i64 0), i32* %17)
  br label %19

19:                                               ; preds = %14
  %20 = load i32, i32* %3, align 4
  %21 = add nsw i32 %20, 1
  store i32 %21, i32* %3, align 4
  br label %10

22:                                               ; preds = %10
  store i32 0, i32* %3, align 4
  br label %23

23:                                               ; preds = %91, %22
  %24 = load i32, i32* %3, align 4
  %25 = load i32, i32* %2, align 4
  %26 = icmp slt i32 %24, %25
  br i1 %26, label %27, label %94

27:                                               ; preds = %23
  %28 = getelementptr inbounds [500 x double], [500 x double]* %5, i64 0, i64 0
  store double 1.000000e+00, double* %28, align 16
  %29 = getelementptr inbounds [500 x double], [500 x double]* %5, i64 0, i64 1
  store double 2.000000e+00, double* %29, align 8
  %30 = getelementptr inbounds [500 x double], [500 x double]* %6, i64 0, i64 0
  store double 2.000000e+00, double* %30, align 16
  %31 = getelementptr inbounds [500 x double], [500 x double]* %6, i64 0, i64 1
  store double 3.000000e+00, double* %31, align 8
  %32 = load i32, i32* %3, align 4
  %33 = sext i32 %32 to i64
  %34 = getelementptr inbounds [500 x float], [500 x float]* %8, i64 0, i64 %33
  store float 2.000000e+00, float* %34, align 4
  store i32 1, i32* %4, align 4
  br label %35

35:                                               ; preds = %87, %27
  %36 = load i32, i32* %4, align 4
  %37 = load i32, i32* %3, align 4
  %38 = sext i32 %37 to i64
  %39 = getelementptr inbounds [500 x i32], [500 x i32]* %7, i64 0, i64 %38
  %40 = load i32, i32* %39, align 4
  %41 = icmp slt i32 %36, %40
  br i1 %41, label %42, label %90

42:                                               ; preds = %35
  %43 = load i32, i32* %4, align 4
  %44 = sext i32 %43 to i64
  %45 = getelementptr inbounds [500 x double], [500 x double]* %6, i64 0, i64 %44
  %46 = load double, double* %45, align 8
  %47 = load i32, i32* %4, align 4
  %48 = sext i32 %47 to i64
  %49 = getelementptr inbounds [500 x double], [500 x double]* %5, i64 0, i64 %48
  %50 = load double, double* %49, align 8
  %51 = fdiv double %46, %50
  %52 = load i32, i32* %3, align 4
  %53 = sext i32 %52 to i64
  %54 = getelementptr inbounds [500 x float], [500 x float]* %8, i64 0, i64 %53
  %55 = load float, float* %54, align 4
  %56 = fpext float %55 to double
  %57 = fadd double %56, %51
  %58 = fptrunc double %57 to float
  store float %58, float* %54, align 4
  %59 = load i32, i32* %4, align 4
  %60 = sext i32 %59 to i64
  %61 = getelementptr inbounds [500 x double], [500 x double]* %6, i64 0, i64 %60
  %62 = load double, double* %61, align 8
  %63 = load i32, i32* %4, align 4
  %64 = sub nsw i32 %63, 1
  %65 = sext i32 %64 to i64
  %66 = getelementptr inbounds [500 x double], [500 x double]* %6, i64 0, i64 %65
  %67 = load double, double* %66, align 8
  %68 = fadd double %62, %67
  %69 = load i32, i32* %4, align 4
  %70 = add nsw i32 %69, 1
  %71 = sext i32 %70 to i64
  %72 = getelementptr inbounds [500 x double], [500 x double]* %6, i64 0, i64 %71
  store double %68, double* %72, align 8
  %73 = load i32, i32* %4, align 4
  %74 = sext i32 %73 to i64
  %75 = getelementptr inbounds [500 x double], [500 x double]* %5, i64 0, i64 %74
  %76 = load double, double* %75, align 8
  %77 = load i32, i32* %4, align 4
  %78 = sub nsw i32 %77, 1
  %79 = sext i32 %78 to i64
  %80 = getelementptr inbounds [500 x double], [500 x double]* %5, i64 0, i64 %79
  %81 = load double, double* %80, align 8
  %82 = fadd double %76, %81
  %83 = load i32, i32* %4, align 4
  %84 = add nsw i32 %83, 1
  %85 = sext i32 %84 to i64
  %86 = getelementptr inbounds [500 x double], [500 x double]* %5, i64 0, i64 %85
  store double %82, double* %86, align 8
  br label %87

87:                                               ; preds = %42
  %88 = load i32, i32* %4, align 4
  %89 = add nsw i32 %88, 1
  store i32 %89, i32* %4, align 4
  br label %35

90:                                               ; preds = %35
  br label %91

91:                                               ; preds = %90
  %92 = load i32, i32* %3, align 4
  %93 = add nsw i32 %92, 1
  store i32 %93, i32* %3, align 4
  br label %23

94:                                               ; preds = %23
  store i32 0, i32* %3, align 4
  br label %95

95:                                               ; preds = %106, %94
  %96 = load i32, i32* %3, align 4
  %97 = load i32, i32* %2, align 4
  %98 = icmp slt i32 %96, %97
  br i1 %98, label %99, label %109

99:                                               ; preds = %95
  %100 = load i32, i32* %3, align 4
  %101 = sext i32 %100 to i64
  %102 = getelementptr inbounds [500 x float], [500 x float]* %8, i64 0, i64 %101
  %103 = load float, float* %102, align 4
  %104 = fpext float %103 to double
  %105 = call i32 (i8*, ...) @printf(i8* getelementptr inbounds ([6 x i8], [6 x i8]* @.str.1, i64 0, i64 0), double %104)
  br label %106

106:                                              ; preds = %99
  %107 = load i32, i32* %3, align 4
  %108 = add nsw i32 %107, 1
  store i32 %108, i32* %3, align 4
  br label %95

109:                                              ; preds = %95
  ret i32 0
}

declare dso_local i32 @__isoc99_scanf(i8*, ...) #1

declare dso_local i32 @printf(i8*, ...) #1


!llvm.module.flags = !{!0}
!llvm.ident = !{!1}

!0 = !{i32 1, !"wchar_size", i32 4}
!1 = !{!"clang version 10.0.0-4ubuntu1 "}
